target datalayout = "e-m:e-p270:32:32-p271:32:32-p272:64:64-i64:64-i128:128-f80:128-n8:16:32:64-S128"
target triple = "x86_64-pc-linux-gnu"

%struct.__ncnn_net_t = type { ptr, ptr }

; Function Attrs: mustprogress uwtable
define hidden ptr @ncnn_net_create() #1 personality ptr @__gxx_personality_v0 {
  %1 = alloca ptr, align 8
  %2 = alloca ptr, align 8
  %3 = alloca i32, align 4
  %4 = call noalias ptr @malloc(i64 noundef 16) #12
  store ptr %4, ptr %1, align 8
  %5 = call noalias noundef nonnull ptr @_Znwm(i64 noundef 80) #13
  invoke void @_ZN4ncnn3NetC1Ev(ptr noundef nonnull align 8 dereferenceable(80) %5)
          to label %6 unwind label %12

6:                                                ; preds = %0
  %7 = load ptr, ptr %1, align 8
  %8 = getelementptr inbounds nuw %struct.__ncnn_net_t, ptr %7, i32 0, i32 0
  store ptr %5, ptr %8, align 8
  %9 = load ptr, ptr %1, align 8
  %10 = getelementptr inbounds nuw %struct.__ncnn_net_t, ptr %9, i32 0, i32 1
  store ptr null, ptr %10, align 8
  %11 = load ptr, ptr %1, align 8
  ret ptr %11

12:                                               ; preds = %0
  %13 = landingpad { ptr, i32 }
          cleanup
  %14 = extractvalue { ptr, i32 } %13, 0
  store ptr %14, ptr %2, align 8
  %15 = extractvalue { ptr, i32 } %13, 1
  store i32 %15, ptr %3, align 4
  call void @_ZdlPvm(ptr noundef %5, i64 noundef 80) #14
  br label %16

16:                                               ; preds = %12
  %17 = load ptr, ptr %2, align 8
  %18 = load i32, ptr %3, align 4
  %19 = insertvalue { ptr, i32 } poison, ptr %17, 0
  %20 = insertvalue { ptr, i32 } %19, i32 %18, 1
  resume { ptr, i32 } %20
}