; Function Attrs: mustprogress uwtable
define hidden noalias noundef ptr @ncnn_net_create() local_unnamed_addr #1 personality ptr @__gxx_personality_v0 {
  %1 = tail call noalias dereferenceable_or_null(16) ptr @malloc(i64 noundef 16) #23
  %2 = tail call noalias noundef nonnull dereferenceable(80) ptr @_Znwm(i64 noundef 80) #24
  invoke void @_ZN4ncnn3NetC1Ev(ptr noundef nonnull align 8 dereferenceable(80) %2)
          to label %3 unwind label %5

3:                                                ; preds = %0
  store ptr %2, ptr %1, align 8
  %4 = getelementptr inbounds nuw i8, ptr %1, i64 8
  store ptr null, ptr %4, align 8
  ret ptr %1

5:                                                ; preds = %0
  %6 = landingpad { ptr, i32 }
          cleanup
  tail call void @_ZdlPvm(ptr noundef nonnull %2, i64 noundef 80) #25
  resume { ptr, i32 } %6
}